; Function Attrs: nounwind sspstrong uwtable
define internal range(i64 0, 21) i64 @rb_stat_W(i64 noundef %0) #0 {
  %2 = tail call ptr @rb_check_typeddata(i64 noundef %0, ptr noundef nonnull @stat_data_type) #22
  %3 = getelementptr inbounds nuw i8, ptr %2, i64 144
  %4 = load i8, ptr %3, align 8, !tbaa !28, !range !278, !noundef !279
  %5 = trunc nuw i8 %4 to i1
  br i1 %5, label %get_stat.exit, label %6

6:                                                ; preds = %1
  %7 = load i64, ptr @rb_eTypeError, align 8, !tbaa !12
  tail call void (i64, ptr, ...) @rb_raise(i64 noundef %7, ptr noundef nonnull @.str.147) #24
  unreachable

get_stat.exit:                                    ; preds = %1
  %8 = tail call i32 @getuid() #22
  %9 = icmp eq i32 %8, 0
  br i1 %9, label %42, label %10

10:                                               ; preds = %get_stat.exit
  %11 = tail call ptr @rb_check_typeddata(i64 noundef %0, ptr noundef nonnull @stat_data_type) #22
  %12 = getelementptr inbounds nuw i8, ptr %11, i64 144
  %13 = load i8, ptr %12, align 8, !tbaa !28, !range !278, !noundef !279
  %14 = trunc nuw i8 %13 to i1
  br i1 %14, label %rb_stat_rowned.exit, label %15

15:                                               ; preds = %10
  %16 = load i64, ptr @rb_eTypeError, align 8, !tbaa !12
  tail call void (i64, ptr, ...) @rb_raise(i64 noundef %16, ptr noundef nonnull @.str.147) #24
  unreachable

rb_stat_rowned.exit:                              ; preds = %10
  %17 = getelementptr inbounds nuw i8, ptr %11, i64 28
  %18 = load i32, ptr %17, align 4, !tbaa !204
  %19 = tail call i32 @getuid() #22
  %.not = icmp eq i32 %18, %19
  br i1 %.not, label %20, label %25

20:                                               ; preds = %rb_stat_rowned.exit
  %21 = getelementptr inbounds nuw i8, ptr %2, i64 24
  %22 = load i32, ptr %21, align 8, !tbaa !180
  %23 = and i32 %22, 128
  %.not9 = icmp eq i32 %23, 0
  %24 = select i1 %.not9, i64 0, i64 20
  br label %42

25:                                               ; preds = %rb_stat_rowned.exit
  %26 = tail call ptr @rb_check_typeddata(i64 noundef %0, ptr noundef nonnull @stat_data_type) #22
  %27 = getelementptr inbounds nuw i8, ptr %26, i64 144
  %28 = load i8, ptr %27, align 8, !tbaa !28, !range !278, !noundef !279
  %29 = trunc nuw i8 %28 to i1
  br i1 %29, label %get_stat.exit10, label %30

30:                                               ; preds = %25
  %31 = load i64, ptr @rb_eTypeError, align 8, !tbaa !12
  tail call void (i64, ptr, ...) @rb_raise(i64 noundef %31, ptr noundef nonnull @.str.147) #24
  unreachable

get_stat.exit10:                                  ; preds = %25
  %32 = getelementptr inbounds nuw i8, ptr %26, i64 32
  %33 = load i32, ptr %32, align 8, !tbaa !205
  %34 = tail call fastcc i32 @rb_group_member(i32 noundef %33)
  %.not6 = icmp eq i32 %34, 0
  %35 = getelementptr inbounds nuw i8, ptr %2, i64 24
  %36 = load i32, ptr %35, align 8, !tbaa !180
  br i1 %.not6, label %40, label %37

37:                                               ; preds = %get_stat.exit10
  %38 = and i32 %36, 16
  %.not8 = icmp eq i32 %38, 0
  %39 = select i1 %.not8, i64 0, i64 20
  br label %42

40:                                               ; preds = %get_stat.exit10
  %41 = and i32 %36, 2
  %.not7 = icmp eq i32 %41, 0
  %. = select i1 %.not7, i64 0, i64 20
  br label %42

42:                                               ; preds = %40, %get_stat.exit, %37, %20
  %.0 = phi i64 [ %24, %20 ], [ %39, %37 ], [ 20, %get_stat.exit ], [ %., %40 ]
  ret i64 %.0
}